; Function Attrs: mustprogress nounwind uwtable
define hidden void @_ZN9Arguments17print_jvm_args_onEP12outputStream(ptr noundef %0) local_unnamed_addr #0 align 2 {
  %2 = load i32, ptr @_ZN9Arguments13_num_jvm_argsE, align 4
  %3 = icmp sgt i32 %2, 0
  br i1 %3, label %.lr.ph, label %.loopexit

.lr.ph:                                           ; preds = %1, %.lr.ph
  %indvars.iv = phi i64 [ %indvars.iv.next, %.lr.ph ], [ 0, %1 ]
  %4 = load ptr, ptr @_ZN9Arguments15_jvm_args_arrayE, align 8
  %5 = getelementptr inbounds ptr, ptr %4, i64 %indvars.iv
  %6 = load ptr, ptr %5, align 8
  tail call void (ptr, ptr, ...) @_ZN12outputStream5printEPKcz(ptr noundef nonnull align 8 dereferenceable(56) %0, ptr noundef nonnull @.str.64, ptr noundef %6) #31
  %indvars.iv.next = add nuw nsw i64 %indvars.iv, 1
  %7 = load i32, ptr @_ZN9Arguments13_num_jvm_argsE, align 4
  %8 = sext i32 %7 to i64
  %9 = icmp slt i64 %indvars.iv.next, %8
  br i1 %9, label %.lr.ph, label %.loopexit, !llvm.loop !14

.loopexit:                                        ; preds = %.lr.ph, %1
  ret void
}